target datalayout = "e-m:e-p270:32:32-p271:32:32-p272:64:64-i64:64-i128:128-f80:128-n8:16:32:64-S128"
target triple = "x86_64-pc-linux-gnu"

%struct.anon = type { [3 x double] }
%struct._generic_N_Vector = type { ptr, ptr, ptr }
%struct._N_VectorContent_Serial = type { i64, i32, ptr }

; Function Attrs: nounwind uwtable
define internal i32 @fS(i32 noundef %0, double noundef %1, ptr noundef %2, ptr noundef %3, i32 noundef %4, ptr noundef %5, ptr noundef %6, ptr noundef %7, ptr noundef %8, ptr noundef %9) #0 {
  %11 = alloca i32, align 4
  %12 = alloca double, align 8
  %13 = alloca ptr, align 8
  %14 = alloca ptr, align 8
  %15 = alloca i32, align 4
  %16 = alloca ptr, align 8
  %17 = alloca ptr, align 8
  %18 = alloca ptr, align 8
  %19 = alloca ptr, align 8
  %20 = alloca ptr, align 8
  %21 = alloca ptr, align 8
  %22 = alloca double, align 8
  %23 = alloca double, align 8
  %24 = alloca double, align 8
  %25 = alloca double, align 8
  %26 = alloca double, align 8
  %27 = alloca double, align 8
  %28 = alloca double, align 8
  %29 = alloca double, align 8
  %30 = alloca double, align 8
  %31 = alloca double, align 8
  %32 = alloca double, align 8
  %33 = alloca double, align 8
  store i32 %0, ptr %11, align 4, !tbaa !4
  store double %1, ptr %12, align 8, !tbaa !20
  store ptr %2, ptr %13, align 8, !tbaa !12
  store ptr %3, ptr %14, align 8, !tbaa !12
  store i32 %4, ptr %15, align 4, !tbaa !4
  store ptr %5, ptr %16, align 8, !tbaa !12
  store ptr %6, ptr %17, align 8, !tbaa !12
  store ptr %7, ptr %18, align 8, !tbaa !11
  store ptr %8, ptr %19, align 8, !tbaa !12
  store ptr %9, ptr %20, align 8, !tbaa !12
  call void @llvm.lifetime.start.p0(i64 8, ptr %21) #8
  call void @llvm.lifetime.start.p0(i64 8, ptr %22) #8
  call void @llvm.lifetime.start.p0(i64 8, ptr %23) #8
  call void @llvm.lifetime.start.p0(i64 8, ptr %24) #8
  call void @llvm.lifetime.start.p0(i64 8, ptr %25) #8
  call void @llvm.lifetime.start.p0(i64 8, ptr %26) #8
  call void @llvm.lifetime.start.p0(i64 8, ptr %27) #8
  call void @llvm.lifetime.start.p0(i64 8, ptr %28) #8
  call void @llvm.lifetime.start.p0(i64 8, ptr %29) #8
  call void @llvm.lifetime.start.p0(i64 8, ptr %30) #8
  call void @llvm.lifetime.start.p0(i64 8, ptr %31) #8
  call void @llvm.lifetime.start.p0(i64 8, ptr %32) #8
  call void @llvm.lifetime.start.p0(i64 8, ptr %33) #8
  %34 = load ptr, ptr %18, align 8, !tbaa !11
  store ptr %34, ptr %21, align 8, !tbaa !11
  %35 = load ptr, ptr %21, align 8, !tbaa !11
  %36 = getelementptr inbounds nuw %struct.anon, ptr %35, i32 0, i32 0
  %37 = getelementptr inbounds [3 x double], ptr %36, i64 0, i64 0
  %38 = load double, ptr %37, align 8, !tbaa !20
  store double %38, ptr %22, align 8, !tbaa !20
  %39 = load ptr, ptr %21, align 8, !tbaa !11
  %40 = getelementptr inbounds nuw %struct.anon, ptr %39, i32 0, i32 0
  %41 = getelementptr inbounds [3 x double], ptr %40, i64 0, i64 1
  %42 = load double, ptr %41, align 8, !tbaa !20
  store double %42, ptr %23, align 8, !tbaa !20
  %43 = load ptr, ptr %21, align 8, !tbaa !11
  %44 = getelementptr inbounds nuw %struct.anon, ptr %43, i32 0, i32 0
  %45 = getelementptr inbounds [3 x double], ptr %44, i64 0, i64 2
  %46 = load double, ptr %45, align 8, !tbaa !20
  store double %46, ptr %24, align 8, !tbaa !20
  %47 = load ptr, ptr %13, align 8, !tbaa !12
  %48 = getelementptr inbounds nuw %struct._generic_N_Vector, ptr %47, i32 0, i32 0
  %49 = load ptr, ptr %48, align 8, !tbaa !24
  %50 = getelementptr inbounds nuw %struct._N_VectorContent_Serial, ptr %49, i32 0, i32 2
  %51 = load ptr, ptr %50, align 8, !tbaa !27
  %52 = getelementptr inbounds double, ptr %51, i64 0
  %53 = load double, ptr %52, align 8, !tbaa !20
  store double %53, ptr %25, align 8, !tbaa !20
  %54 = load ptr, ptr %13, align 8, !tbaa !12
  %55 = getelementptr inbounds nuw %struct._generic_N_Vector, ptr %54, i32 0, i32 0
  %56 = load ptr, ptr %55, align 8, !tbaa !24
  %57 = getelementptr inbounds nuw %struct._N_VectorContent_Serial, ptr %56, i32 0, i32 2
  %58 = load ptr, ptr %57, align 8, !tbaa !27
  %59 = getelementptr inbounds double, ptr %58, i64 1
  %60 = load double, ptr %59, align 8, !tbaa !20
  store double %60, ptr %26, align 8, !tbaa !20
  %61 = load ptr, ptr %13, align 8, !tbaa !12
  %62 = getelementptr inbounds nuw %struct._generic_N_Vector, ptr %61, i32 0, i32 0
  %63 = load ptr, ptr %62, align 8, !tbaa !24
  %64 = getelementptr inbounds nuw %struct._N_VectorContent_Serial, ptr %63, i32 0, i32 2
  %65 = load ptr, ptr %64, align 8, !tbaa !27
  %66 = getelementptr inbounds double, ptr %65, i64 2
  %67 = load double, ptr %66, align 8, !tbaa !20
  store double %67, ptr %27, align 8, !tbaa !20
  %68 = load ptr, ptr %16, align 8, !tbaa !12
  %69 = getelementptr inbounds nuw %struct._generic_N_Vector, ptr %68, i32 0, i32 0
  %70 = load ptr, ptr %69, align 8, !tbaa !24
  %71 = getelementptr inbounds nuw %struct._N_VectorContent_Serial, ptr %70, i32 0, i32 2
  %72 = load ptr, ptr %71, align 8, !tbaa !27
  %73 = getelementptr inbounds double, ptr %72, i64 0
  %74 = load double, ptr %73, align 8, !tbaa !20
  store double %74, ptr %28, align 8, !tbaa !20
  %75 = load ptr, ptr %16, align 8, !tbaa !12
  %76 = getelementptr inbounds nuw %struct._generic_N_Vector, ptr %75, i32 0, i32 0
  %77 = load ptr, ptr %76, align 8, !tbaa !24
  %78 = getelementptr inbounds nuw %struct._N_VectorContent_Serial, ptr %77, i32 0, i32 2
  %79 = load ptr, ptr %78, align 8, !tbaa !27
  %80 = getelementptr inbounds double, ptr %79, i64 1
  %81 = load double, ptr %80, align 8, !tbaa !20
  store double %81, ptr %29, align 8, !tbaa !20
  %82 = load ptr, ptr %16, align 8, !tbaa !12
  %83 = getelementptr inbounds nuw %struct._generic_N_Vector, ptr %82, i32 0, i32 0
  %84 = load ptr, ptr %83, align 8, !tbaa !24
  %85 = getelementptr inbounds nuw %struct._N_VectorContent_Serial, ptr %84, i32 0, i32 2
  %86 = load ptr, ptr %85, align 8, !tbaa !27
  %87 = getelementptr inbounds double, ptr %86, i64 2
  %88 = load double, ptr %87, align 8, !tbaa !20
  store double %88, ptr %30, align 8, !tbaa !20
  %89 = load double, ptr %22, align 8, !tbaa !20
  %90 = fneg double %89
  %91 = load double, ptr %28, align 8, !tbaa !20
  %92 = load double, ptr %23, align 8, !tbaa !20
  %93 = load double, ptr %27, align 8, !tbaa !20
  %94 = fmul double %92, %93
  %95 = load double, ptr %29, align 8, !tbaa !20
  %96 = fmul double %94, %95
  %97 = call double @llvm.fmuladd.f64(double %90, double %91, double %96)
  %98 = load double, ptr %23, align 8, !tbaa !20
  %99 = load double, ptr %26, align 8, !tbaa !20
  %100 = fmul double %98, %99
  %101 = load double, ptr %30, align 8, !tbaa !20
  %102 = call double @llvm.fmuladd.f64(double %100, double %101, double %97)
  store double %102, ptr %31, align 8, !tbaa !20
  %103 = load double, ptr %24, align 8, !tbaa !20
  %104 = fmul double 2.000000e+00, %103
  %105 = load double, ptr %26, align 8, !tbaa !20
  %106 = fmul double %104, %105
  %107 = load double, ptr %29, align 8, !tbaa !20
  %108 = fmul double %106, %107
  store double %108, ptr %33, align 8, !tbaa !20
  %109 = load double, ptr %31, align 8, !tbaa !20
  %110 = fneg double %109
  %111 = load double, ptr %33, align 8, !tbaa !20
  %112 = fsub double %110, %111
  store double %112, ptr %32, align 8, !tbaa !20
  %113 = load i32, ptr %15, align 4, !tbaa !4
  switch i32 %113, label %142 [
    i32 0, label %114
    i32 1, label %122
    i32 2, label %132
  ]

114:                                              ; preds = %10
  %115 = load double, ptr %25, align 8, !tbaa !20
  %116 = fneg double %115
  %117 = load double, ptr %31, align 8, !tbaa !20
  %118 = fadd double %117, %116
  store double %118, ptr %31, align 8, !tbaa !20
  %119 = load double, ptr %25, align 8, !tbaa !20
  %120 = load double, ptr %32, align 8, !tbaa !20
  %121 = fadd double %120, %119
  store double %121, ptr %32, align 8, !tbaa !20
  br label %142

122:                                              ; preds = %10
  %123 = load double, ptr %26, align 8, !tbaa !20
  %124 = load double, ptr %27, align 8, !tbaa !20
  %125 = load double, ptr %31, align 8, !tbaa !20
  %126 = call double @llvm.fmuladd.f64(double %123, double %124, double %125)
  store double %126, ptr %31, align 8, !tbaa !20
  %127 = load double, ptr %26, align 8, !tbaa !20
  %128 = fneg double %127
  %129 = load double, ptr %27, align 8, !tbaa !20
  %130 = load double, ptr %32, align 8, !tbaa !20
  %131 = call double @llvm.fmuladd.f64(double %128, double %129, double %130)
  store double %131, ptr %32, align 8, !tbaa !20
  br label %142

132:                                              ; preds = %10
  %133 = load double, ptr %26, align 8, !tbaa !20
  %134 = fneg double %133
  %135 = load double, ptr %26, align 8, !tbaa !20
  %136 = load double, ptr %32, align 8, !tbaa !20
  %137 = call double @llvm.fmuladd.f64(double %134, double %135, double %136)
  store double %137, ptr %32, align 8, !tbaa !20
  %138 = load double, ptr %26, align 8, !tbaa !20
  %139 = load double, ptr %26, align 8, !tbaa !20
  %140 = load double, ptr %33, align 8, !tbaa !20
  %141 = call double @llvm.fmuladd.f64(double %138, double %139, double %140)
  store double %141, ptr %33, align 8, !tbaa !20
  br label %142

142:                                              ; preds = %10, %132, %122, %114
  %143 = load double, ptr %31, align 8, !tbaa !20
  %144 = load ptr, ptr %17, align 8, !tbaa !12
  %145 = getelementptr inbounds nuw %struct._generic_N_Vector, ptr %144, i32 0, i32 0
  %146 = load ptr, ptr %145, align 8, !tbaa !24
  %147 = getelementptr inbounds nuw %struct._N_VectorContent_Serial, ptr %146, i32 0, i32 2
  %148 = load ptr, ptr %147, align 8, !tbaa !27
  %149 = getelementptr inbounds double, ptr %148, i64 0
  store double %143, ptr %149, align 8, !tbaa !20
  %150 = load double, ptr %32, align 8, !tbaa !20
  %151 = load ptr, ptr %17, align 8, !tbaa !12
  %152 = getelementptr inbounds nuw %struct._generic_N_Vector, ptr %151, i32 0, i32 0
  %153 = load ptr, ptr %152, align 8, !tbaa !24
  %154 = getelementptr inbounds nuw %struct._N_VectorContent_Serial, ptr %153, i32 0, i32 2
  %155 = load ptr, ptr %154, align 8, !tbaa !27
  %156 = getelementptr inbounds double, ptr %155, i64 1
  store double %150, ptr %156, align 8, !tbaa !20
  %157 = load double, ptr %33, align 8, !tbaa !20
  %158 = load ptr, ptr %17, align 8, !tbaa !12
  %159 = getelementptr inbounds nuw %struct._generic_N_Vector, ptr %158, i32 0, i32 0
  %160 = load ptr, ptr %159, align 8, !tbaa !24
  %161 = getelementptr inbounds nuw %struct._N_VectorContent_Serial, ptr %160, i32 0, i32 2
  %162 = load ptr, ptr %161, align 8, !tbaa !27
  %163 = getelementptr inbounds double, ptr %162, i64 2
  store double %157, ptr %163, align 8, !tbaa !20
  call void @llvm.lifetime.end.p0(i64 8, ptr %33) #8
  call void @llvm.lifetime.end.p0(i64 8, ptr %32) #8
  call void @llvm.lifetime.end.p0(i64 8, ptr %31) #8
  call void @llvm.lifetime.end.p0(i64 8, ptr %30) #8
  call void @llvm.lifetime.end.p0(i64 8, ptr %29) #8
  call void @llvm.lifetime.end.p0(i64 8, ptr %28) #8
  call void @llvm.lifetime.end.p0(i64 8, ptr %27) #8
  call void @llvm.lifetime.end.p0(i64 8, ptr %26) #8
  call void @llvm.lifetime.end.p0(i64 8, ptr %25) #8
  call void @llvm.lifetime.end.p0(i64 8, ptr %24) #8
  call void @llvm.lifetime.end.p0(i64 8, ptr %23) #8
  call void @llvm.lifetime.end.p0(i64 8, ptr %22) #8
  call void @llvm.lifetime.end.p0(i64 8, ptr %21) #8
  ret i32 0
}