; Function Attrs: mustprogress nofree norecurse nosync nounwind willreturn memory(readwrite, inaccessiblemem: none) uwtable
define internal noundef i32 @fS(i32 %0, double %1, ptr noundef readonly captures(none) %2, ptr readnone captures(none) %3, i32 noundef %4, ptr noundef readonly captures(none) %5, ptr noundef readonly captures(none) %6, ptr noundef readonly captures(none) %7, ptr readnone captures(none) %8, ptr readnone captures(none) %9) #4 {
  %11 = load double, ptr %7, align 8, !tbaa !11
  %12 = getelementptr inbounds nuw i8, ptr %7, i64 8
  %13 = load double, ptr %12, align 8, !tbaa !11
  %14 = getelementptr inbounds nuw i8, ptr %7, i64 16
  %15 = load double, ptr %14, align 8, !tbaa !11
  %16 = load ptr, ptr %2, align 8, !tbaa !15
  %17 = getelementptr inbounds nuw i8, ptr %16, i64 16
  %18 = load ptr, ptr %17, align 8, !tbaa !18
  %19 = getelementptr inbounds nuw i8, ptr %18, i64 8
  %20 = load double, ptr %19, align 8, !tbaa !11
  %21 = getelementptr inbounds nuw i8, ptr %18, i64 16
  %22 = load double, ptr %21, align 8, !tbaa !11
  %23 = load ptr, ptr %5, align 8, !tbaa !15
  %24 = getelementptr inbounds nuw i8, ptr %23, i64 16
  %25 = load ptr, ptr %24, align 8, !tbaa !18
  %26 = load double, ptr %25, align 8, !tbaa !11
  %27 = getelementptr inbounds nuw i8, ptr %25, i64 8
  %28 = load double, ptr %27, align 8, !tbaa !11
  %29 = getelementptr inbounds nuw i8, ptr %25, i64 16
  %30 = load double, ptr %29, align 8, !tbaa !11
  %31 = fneg double %11
  %32 = fmul double %13, %22
  %33 = fmul double %32, %28
  %34 = tail call double @llvm.fmuladd.f64(double %31, double %26, double %33)
  %35 = fmul double %13, %20
  %36 = tail call double @llvm.fmuladd.f64(double %35, double %30, double %34)
  %37 = fmul double %15, 2.000000e+00
  %38 = fmul double %37, %20
  %39 = fmul double %38, %28
  %40 = fneg double %36
  %41 = fsub double %40, %39
  switch i32 %4, label %54 [
    i32 0, label %42
    i32 1, label %46
    i32 2, label %50
  ]

42:                                               ; preds = %10
  %43 = load double, ptr %18, align 8, !tbaa !11
  %44 = fsub double %36, %43
  %45 = fadd double %41, %43
  br label %54

46:                                               ; preds = %10
  %47 = tail call double @llvm.fmuladd.f64(double %20, double %22, double %36)
  %48 = fneg double %20
  %49 = tail call double @llvm.fmuladd.f64(double %48, double %22, double %41)
  br label %54

50:                                               ; preds = %10
  %51 = fneg double %20
  %52 = tail call double @llvm.fmuladd.f64(double %51, double %20, double %41)
  %53 = tail call double @llvm.fmuladd.f64(double %20, double %20, double %39)
  br label %54

54:                                               ; preds = %50, %46, %42, %10
  %.046 = phi double [ %36, %10 ], [ %36, %50 ], [ %47, %46 ], [ %44, %42 ]
  %.045 = phi double [ %41, %10 ], [ %52, %50 ], [ %49, %46 ], [ %45, %42 ]
  %.0 = phi double [ %39, %10 ], [ %53, %50 ], [ %39, %46 ], [ %39, %42 ]
  %55 = load ptr, ptr %6, align 8, !tbaa !15
  %56 = getelementptr inbounds nuw i8, ptr %55, i64 16
  %57 = load ptr, ptr %56, align 8, !tbaa !18
  store double %.046, ptr %57, align 8, !tbaa !11
  %58 = getelementptr inbounds nuw i8, ptr %57, i64 8
  store double %.045, ptr %58, align 8, !tbaa !11
  %59 = getelementptr inbounds nuw i8, ptr %57, i64 16
  store double %.0, ptr %59, align 8, !tbaa !11
  ret i32 0
}